target datalayout = "e-m:e-p270:32:32-p271:32:32-p272:64:64-i64:64-i128:128-f80:128-n8:16:32:64-S128"
target triple = "x86_64-pc-linux-gnu"

@error_callback_fired = internal global i32 0, align 4

; Function Attrs: nounwind uwtable
define internal i64 @BIO_error_callback(ptr noundef %0, i32 noundef %1, ptr noundef %2, i64 noundef %3, i32 noundef %4, i64 noundef %5, i32 noundef %6, ptr noundef %7) #0 {
  %9 = alloca ptr, align 8
  %10 = alloca i32, align 4
  %11 = alloca ptr, align 8
  %12 = alloca i64, align 8
  %13 = alloca i32, align 4
  %14 = alloca i64, align 8
  %15 = alloca i32, align 4
  %16 = alloca ptr, align 8
  store ptr %0, ptr %9, align 8, !tbaa !8
  store i32 %1, ptr %10, align 4, !tbaa !4
  store ptr %2, ptr %11, align 8, !tbaa !21
  store i64 %3, ptr %12, align 8, !tbaa !22
  store i32 %4, ptr %13, align 4, !tbaa !4
  store i64 %5, ptr %14, align 8, !tbaa !22
  store i32 %6, ptr %15, align 4, !tbaa !4
  store ptr %7, ptr %16, align 8, !tbaa !23
  %17 = load i32, ptr %10, align 4, !tbaa !4
  %18 = and i32 %17, 130
  %19 = icmp ne i32 %18, 0
  br i1 %19, label %20, label %21

20:                                               ; preds = %8
  store i32 1, ptr @error_callback_fired, align 4, !tbaa !4
  store i32 0, ptr %15, align 4, !tbaa !4
  br label %21

21:                                               ; preds = %20, %8
  %22 = load i32, ptr %15, align 4, !tbaa !4
  %23 = sext i32 %22 to i64
  ret i64 %23
}