; Function Attrs: mustprogress nofree norecurse nosync nounwind willreturn memory(write, argmem: none, inaccessiblemem: none) uwtable
define internal range(i64 -2147483648, 2147483648) i64 @BIO_error_callback(ptr readnone captures(none) %0, i32 noundef %1, ptr readnone captures(none) %2, i64 %3, i32 %4, i64 %5, i32 noundef %6, ptr readnone captures(none) %7) #3 {
  %9 = and i32 %1, 130
  %.not = icmp eq i32 %9, 0
  br i1 %.not, label %11, label %10

10:                                               ; preds = %8
  store i1 true, ptr @error_callback_fired, align 4
  br label %11

11:                                               ; preds = %10, %8
  %.0 = phi i32 [ 0, %10 ], [ %6, %8 ]
  %12 = sext i32 %.0 to i64
  ret i64 %12
}